; Function Attrs: nofree norecurse nosync nounwind memory(argmem: readwrite) uwtable
define internal void @conv_AV_SAMPLE_FMT_S32_to_AV_SAMPLE_FMT_DBL(ptr noundef writeonly captures(address) %0, ptr noundef readonly captures(none) %1, i32 noundef %2, i32 noundef %3, ptr noundef readnone captures(address) %4) #4 {
  %6 = mul nsw i32 %3, 3
  %7 = sext i32 %6 to i64
  %8 = sub nsw i64 0, %7
  %9 = getelementptr inbounds i8, ptr %4, i64 %8
  %10 = icmp ult ptr %0, %9
  br i1 %10, label %.lr.ph, label %.preheader

.lr.ph:                                           ; preds = %5
  %11 = sext i32 %2 to i64
  %12 = sext i32 %3 to i64
  br label %16

.preheader:                                       ; preds = %16, %5
  %.035.lcssa = phi ptr [ %1, %5 ], [ %35, %16 ]
  %.0.lcssa = phi ptr [ %0, %5 ], [ %36, %16 ]
  %13 = icmp ult ptr %.0.lcssa, %4
  br i1 %13, label %.lr.ph42, label %._crit_edge

.lr.ph42:                                         ; preds = %.preheader
  %14 = sext i32 %2 to i64
  %15 = sext i32 %3 to i64
  br label %38

16:                                               ; preds = %.lr.ph, %16
  %.038 = phi ptr [ %0, %.lr.ph ], [ %36, %16 ]
  %.03537 = phi ptr [ %1, %.lr.ph ], [ %35, %16 ]
  %17 = load i32, ptr %.03537, align 4, !tbaa !27
  %18 = sitofp i32 %17 to double
  %19 = fmul nsz double %18, 0x3E00000000000000
  store double %19, ptr %.038, align 8, !tbaa !42
  %20 = getelementptr inbounds i8, ptr %.03537, i64 %11
  %21 = getelementptr inbounds i8, ptr %.038, i64 %12
  %22 = load i32, ptr %20, align 4, !tbaa !27
  %23 = sitofp i32 %22 to double
  %24 = fmul nsz double %23, 0x3E00000000000000
  store double %24, ptr %21, align 8, !tbaa !42
  %25 = getelementptr inbounds i8, ptr %20, i64 %11
  %26 = getelementptr inbounds i8, ptr %21, i64 %12
  %27 = load i32, ptr %25, align 4, !tbaa !27
  %28 = sitofp i32 %27 to double
  %29 = fmul nsz double %28, 0x3E00000000000000
  store double %29, ptr %26, align 8, !tbaa !42
  %30 = getelementptr inbounds i8, ptr %25, i64 %11
  %31 = getelementptr inbounds i8, ptr %26, i64 %12
  %32 = load i32, ptr %30, align 4, !tbaa !27
  %33 = sitofp i32 %32 to double
  %34 = fmul nsz double %33, 0x3E00000000000000
  store double %34, ptr %31, align 8, !tbaa !42
  %35 = getelementptr inbounds i8, ptr %30, i64 %11
  %36 = getelementptr inbounds i8, ptr %31, i64 %12
  %37 = icmp ult ptr %36, %9
  br i1 %37, label %16, label %.preheader, !llvm.loop !70

38:                                               ; preds = %.lr.ph42, %38
  %.141 = phi ptr [ %.0.lcssa, %.lr.ph42 ], [ %43, %38 ]
  %.13640 = phi ptr [ %.035.lcssa, %.lr.ph42 ], [ %42, %38 ]
  %39 = load i32, ptr %.13640, align 4, !tbaa !27
  %40 = sitofp i32 %39 to double
  %41 = fmul nsz double %40, 0x3E00000000000000
  store double %41, ptr %.141, align 8, !tbaa !42
  %42 = getelementptr inbounds i8, ptr %.13640, i64 %14
  %43 = getelementptr inbounds i8, ptr %.141, i64 %15
  %44 = icmp ult ptr %43, %4
  br i1 %44, label %38, label %._crit_edge, !llvm.loop !71

._crit_edge:                                      ; preds = %38, %.preheader
  ret void
}